# SymbolsHelper-Confirmed: 6.5.0 amd64 arm64 armel armhf hurd-i386 i386 mips64el powerpc ppc64 ppc64el riscv64 s390x sparc64
libKF6Solid.so.6 libkf6solid6 #MINVER#
* Build-Depends-Package: libkf6solid-dev
 (arch=linux-any)_ZGVZN9QMetaType21registerConverterImplI4QMapI15QDBusObjectPathS1_I7QStringS1_IS3_8QVariantEEE9QIterableI16QMetaAssociationEEEbSt8functionIFbPKvPvEES_S_E10unregister@Base 6.5.0
 (arch=linux-any)_ZGVZN9QMetaType21registerConverterImplI4QMapI7QStringS1_IS2_8QVariantEE9QIterableI16QMetaAssociationEEEbSt8functionIFbPKvPvEES_S_E10unregister@Base 6.5.0
 _ZGVZN9QMetaType21registerConverterImplI4QMapI7QStringiE9QIterableI16QMetaAssociationEEEbSt8functionIFbPKvPvEES_S_E10unregister@Base 6.0.0
 _ZGVZN9QMetaType21registerConverterImplI5QListI15QDBusObjectPathE9QIterableI13QMetaSequenceEEEbSt8functionIFbPKvPvEES_S_E10unregister@Base 6.0.0
 _ZGVZN9QMetaType21registerConverterImplI5QListIiE9QIterableI13QMetaSequenceEEEbSt8functionIFbPKvPvEES_S_E10unregister@Base 6.0.0
 (arch=linux-any)_ZGVZN9QMetaType23registerMutableViewImplI4QMapI15QDBusObjectPathS1_I7QStringS1_IS3_8QVariantEEE9QIterableI16QMetaAssociationEEEbSt8functionIFbPvSC_EES_S_E10unregister@Base 6.5.0
 (arch=linux-any)_ZGVZN9QMetaType23registerMutableViewImplI4QMapI7QStringS1_IS2_8QVariantEE9QIterableI16QMetaAssociationEEEbSt8functionIFbPvSA_EES_S_E10unregister@Base 6.5.0
 _ZGVZN9QMetaType23registerMutableViewImplI4QMapI7QStringiE9QIterableI16QMetaAssociationEEEbSt8functionIFbPvS8_EES_S_E10unregister@Base 6.0.0
 _ZGVZN9QMetaType23registerMutableViewImplI5QListI15QDBusObjectPathE9QIterableI13QMetaSequenceEEEbSt8functionIFbPvS8_EES_S_E10unregister@Base 6.0.0
 _ZGVZN9QMetaType23registerMutableViewImplI5QListIiE9QIterableI13QMetaSequenceEEEbSt8functionIFbPvS7_EES_S_E10unregister@Base 6.0.0
 _ZN13QMetaSequence12MetaSequenceI5QListI15QDBusObjectPathEE5valueE@Base 6.0.0
 _ZN13QMetaSequence12MetaSequenceI5QListIiEE5valueE@Base 6.0.0
 (arch=linux-any)_ZN16QMetaAssociation15MetaAssociationI4QMapI15QDBusObjectPathS1_I7QStringS1_IS3_8QVariantEEEE5valueE@Base 6.5.0
 (arch=linux-any)_ZN16QMetaAssociation15MetaAssociationI4QMapI7QStringS1_IS2_8QVariantEEE5valueE@Base 6.5.0
 _ZN16QMetaAssociation15MetaAssociationI4QMapI7QStringiEE5valueE@Base 6.0.0
 _ZN5Solid11OpticalDisc11qt_metacallEN11QMetaObject4CallEiPPv@Base 6.0.0
 _ZN5Solid11OpticalDisc11qt_metacastEPKc@Base 6.0.0
 _ZN5Solid11OpticalDisc16staticMetaObjectE@Base 6.0.0
 _ZN5Solid11OpticalDiscD0Ev@Base 6.0.0
 _ZN5Solid11OpticalDiscD1Ev@Base 6.0.0
 _ZN5Solid11OpticalDiscD2Ev@Base 6.0.0
 _ZN5Solid12NetworkShare11qt_metacallEN11QMetaObject4CallEiPPv@Base 6.0.0
 _ZN5Solid12NetworkShare11qt_metacastEPKc@Base 6.0.0
 _ZN5Solid12NetworkShare16staticMetaObjectE@Base 6.0.0
 _ZN5Solid12NetworkShareD0Ev@Base 6.0.0
 _ZN5Solid12NetworkShareD1Ev@Base 6.0.0
 _ZN5Solid12NetworkShareD2Ev@Base 6.0.0
 _ZN5Solid12OpticalDrive11qt_metacallEN11QMetaObject4CallEiPPv@Base 6.0.0
 _ZN5Solid12OpticalDrive11qt_metacastEPKc@Base 6.0.0
 _ZN5Solid12OpticalDrive12ejectPressedERK7QString@Base 6.0.0
 _ZN5Solid12OpticalDrive14ejectRequestedERK7QString@Base 6.0.0
 _ZN5Solid12OpticalDrive16staticMetaObjectE@Base 6.0.0
 _ZN5Solid12OpticalDrive5ejectEv@Base 6.0.0
 _ZN5Solid12OpticalDrive9ejectDoneENS_9ErrorTypeE8QVariantRK7QString@Base 6.0.0
 _ZN5Solid12OpticalDriveD0Ev@Base 6.0.0
 _ZN5Solid12OpticalDriveD1Ev@Base 6.0.0
 _ZN5Solid12OpticalDriveD2Ev@Base 6.0.0
 _ZN5Solid12StorageDrive11qt_metacallEN11QMetaObject4CallEiPPv@Base 6.0.0
 _ZN5Solid12StorageDrive11qt_metacastEPKc@Base 6.0.0
 _ZN5Solid12StorageDrive16staticMetaObjectE@Base 6.0.0
 _ZN5Solid12StorageDriveD0Ev@Base 6.0.0
 _ZN5Solid12StorageDriveD1Ev@Base 6.0.0
 _ZN5Solid12StorageDriveD2Ev@Base 6.0.0
 _ZN5Solid13StorageAccess10repairDoneENS_9ErrorTypeE8QVariantRK7QString@Base 6.3.0
 _ZN5Solid13StorageAccess11qt_metacallEN11QMetaObject4CallEiPPv@Base 6.0.0
 _ZN5Solid13StorageAccess11qt_metacastEPKc@Base 6.0.0
 _ZN5Solid13StorageAccess12teardownDoneENS_9ErrorTypeE8QVariantRK7QString@Base 6.0.0
 _ZN5Solid13StorageAccess14setupRequestedERK7QString@Base 6.0.0
 _ZN5Solid13StorageAccess15repairRequestedERK7QString@Base 6.3.0
 _ZN5Solid13StorageAccess16staticMetaObjectE@Base 6.0.0
 _ZN5Solid13StorageAccess17teardownRequestedERK7QString@Base 6.0.0
 _ZN5Solid13StorageAccess20accessibilityChangedEbRK7QString@Base 6.0.0
 _ZN5Solid13StorageAccess5checkEv@Base 6.3.0
 _ZN5Solid13StorageAccess5setupEv@Base 6.0.0
 _ZN5Solid13StorageAccess6repairEv@Base 6.3.0
 _ZN5Solid13StorageAccess8teardownEv@Base 6.0.0
 _ZN5Solid13StorageAccess9setupDoneENS_9ErrorTypeE8QVariantRK7QString@Base 6.0.0
 _ZN5Solid13StorageAccessD0Ev@Base 6.0.0
 _ZN5Solid13StorageAccessD1Ev@Base 6.0.0
 _ZN5Solid13StorageAccessD2Ev@Base 6.0.0
 _ZN5Solid13StorageVolume11qt_metacallEN11QMetaObject4CallEiPPv@Base 6.0.0
 _ZN5Solid13StorageVolume11qt_metacastEPKc@Base 6.0.0
 _ZN5Solid13StorageVolume16staticMetaObjectE@Base 6.0.0
 _ZN5Solid13StorageVolumeD0Ev@Base 6.0.0
 _ZN5Solid13StorageVolumeD1Ev@Base 6.0.0
 _ZN5Solid13StorageVolumeD2Ev@Base 6.0.0
 _ZN5Solid14DeviceNotifier11deviceAddedERK7QString@Base 6.0.0
 _ZN5Solid14DeviceNotifier11qt_metacallEN11QMetaObject4CallEiPPv@Base 6.0.0
 _ZN5Solid14DeviceNotifier11qt_metacastEPKc@Base 6.0.0
 _ZN5Solid14DeviceNotifier13deviceRemovedERK7QString@Base 6.0.0
 _ZN5Solid14DeviceNotifier16staticMetaObjectE@Base 6.0.0
 _ZN5Solid14DeviceNotifier8instanceEv@Base 6.0.0
 _ZN5Solid15DeviceInterface11qt_metacallEN11QMetaObject4CallEiPPv@Base 6.0.0
 _ZN5Solid15DeviceInterface11qt_metacastEPKc@Base 6.0.0
 _ZN5Solid15DeviceInterface12stringToTypeERK7QString@Base 6.0.0
 _ZN5Solid15DeviceInterface12typeToStringENS0_4TypeE@Base 6.0.0
 _ZN5Solid15DeviceInterface15typeDescriptionENS0_4TypeE@Base 6.0.0
 _ZN5Solid15DeviceInterface16staticMetaObjectE@Base 6.0.0
 _ZN5Solid15DeviceInterfaceD0Ev@Base 6.0.0
 _ZN5Solid15DeviceInterfaceD1Ev@Base 6.0.0
 _ZN5Solid15DeviceInterfaceD2Ev@Base 6.0.0
 _ZN5Solid16GenericInterface11qt_metacallEN11QMetaObject4CallEiPPv@Base 6.0.0
 _ZN5Solid16GenericInterface11qt_metacastEPKc@Base 6.0.0
 _ZN5Solid16GenericInterface15conditionRaisedERK7QStringS3_@Base 6.0.0
 _ZN5Solid16GenericInterface15propertyChangedERK4QMapI7QStringiE@Base 6.0.0
 _ZN5Solid16GenericInterface16staticMetaObjectE@Base 6.0.0
 _ZN5Solid16GenericInterfaceD0Ev@Base 6.0.0
 _ZN5Solid16GenericInterfaceD1Ev@Base 6.0.0
 _ZN5Solid16GenericInterfaceD2Ev@Base 6.0.0
 _ZN5Solid19PortableMediaPlayer11qt_metacallEN11QMetaObject4CallEiPPv@Base 6.0.0
 _ZN5Solid19PortableMediaPlayer11qt_metacastEPKc@Base 6.0.0
 _ZN5Solid19PortableMediaPlayer16staticMetaObjectE@Base 6.0.0
 _ZN5Solid19PortableMediaPlayerD0Ev@Base 6.0.0
 _ZN5Solid19PortableMediaPlayerD1Ev@Base 6.0.0
 _ZN5Solid19PortableMediaPlayerD2Ev@Base 6.0.0
 _ZN5Solid5Block11qt_metacallEN11QMetaObject4CallEiPPv@Base 6.0.0
 _ZN5Solid5Block11qt_metacastEPKc@Base 6.0.0
 _ZN5Solid5Block16staticMetaObjectE@Base 6.0.0
 _ZN5Solid5BlockD0Ev@Base 6.0.0
 _ZN5Solid5BlockD1Ev@Base 6.0.0
 _ZN5Solid5BlockD2Ev@Base 6.0.0
 _ZN5Solid6Camera11qt_metacallEN11QMetaObject4CallEiPPv@Base 6.0.0
 _ZN5Solid6Camera11qt_metacastEPKc@Base 6.0.0
 _ZN5Solid6Camera16staticMetaObjectE@Base 6.0.0
 _ZN5Solid6CameraD0Ev@Base 6.0.0
 _ZN5Solid6CameraD1Ev@Base 6.0.0
 _ZN5Solid6CameraD2Ev@Base 6.0.0
 _ZN5Solid6Device10allDevicesEv@Base 6.0.0
 _ZN5Solid6Device12listFromTypeERKNS_15DeviceInterface4TypeERK7QString@Base 6.0.0
 _ZN5Solid6Device13listFromQueryERK7QStringS3_@Base 6.0.0
 _ZN5Solid6Device13listFromQueryERKNS_9PredicateERK7QString@Base 6.0.0
 _ZN5Solid6Device17asDeviceInterfaceERKNS_15DeviceInterface4TypeE@Base 6.0.0
 _ZN5Solid6Device21storageAccessFromPathERK7QString@Base 6.0.0
 _ZN5Solid6DeviceC1ERK7QString@Base 6.0.0
 _ZN5Solid6DeviceC1ERKS0_@Base 6.0.0
 _ZN5Solid6DeviceC2ERK7QString@Base 6.0.0
 _ZN5Solid6DeviceC2ERKS0_@Base 6.0.0
 _ZN5Solid6DeviceD1Ev@Base 6.0.0
 _ZN5Solid6DeviceD2Ev@Base 6.0.0
 _ZN5Solid6DeviceaSERKS0_@Base 6.0.0
 _ZN5Solid7Battery11qt_metacallEN11QMetaObject4CallEiPPv@Base 6.0.0
 _ZN5Solid7Battery11qt_metacastEPKc@Base 6.0.0
 _ZN5Solid7Battery13energyChangedEdRK7QString@Base 6.0.0
 _ZN5Solid7Battery14voltageChangedEdRK7QString@Base 6.0.0
 _ZN5Solid7Battery15capacityChangedEiRK7QString@Base 6.0.0
 _ZN5Solid7Battery16staticMetaObjectE@Base 6.0.0
 _ZN5Solid7Battery17energyFullChangedEdRK7QString@Base 6.0.0
 _ZN5Solid7Battery17energyRateChangedEdRK7QString@Base 6.0.0
 _ZN5Solid7Battery17timeToFullChangedExRK7QString@Base 6.0.0
 _ZN5Solid7Battery18chargeStateChangedEiRK7QString@Base 6.0.0
 _ZN5Solid7Battery18temperatureChangedEdRK7QString@Base 6.0.0
 _ZN5Solid7Battery18timeToEmptyChangedExRK7QString@Base 6.0.0
 _ZN5Solid7Battery19presentStateChangedEbRK7QString@Base 6.0.0
 _ZN5Solid7Battery20chargePercentChangedEiRK7QString@Base 6.0.0
 _ZN5Solid7Battery20remainingTimeChangedExRK7QString@Base 6.0.0
 _ZN5Solid7Battery23energyFullDesignChangedEdRK7QString@Base 6.0.0
 _ZN5Solid7Battery23powerSupplyStateChangedEbRK7QString@Base 6.0.0
 _ZN5Solid7BatteryD0Ev@Base 6.0.0
 _ZN5Solid7BatteryD1Ev@Base 6.0.0
 _ZN5Solid7BatteryD2Ev@Base 6.0.0
 _ZN5Solid9Predicate10fromStringERK7QString@Base 6.0.0
 _ZN5Solid9PredicateC1ERK7QString@Base 6.0.0
 _ZN5Solid9PredicateC1ERK7QStringS3_RK8QVariantNS0_18ComparisonOperatorE@Base 6.0.0
 _ZN5Solid9PredicateC1ERKNS_15DeviceInterface4TypeE@Base 6.0.0
 _ZN5Solid9PredicateC1ERKNS_15DeviceInterface4TypeERK7QStringRK8QVariantNS0_18ComparisonOperatorE@Base 6.0.0
 _ZN5Solid9PredicateC1ERKS0_@Base 6.0.0
 _ZN5Solid9PredicateC1Ev@Base 6.0.0
 _ZN5Solid9PredicateC2ERK7QString@Base 6.0.0
 _ZN5Solid9PredicateC2ERK7QStringS3_RK8QVariantNS0_18ComparisonOperatorE@Base 6.0.0
 _ZN5Solid9PredicateC2ERKNS_15DeviceInterface4TypeE@Base 6.0.0
 _ZN5Solid9PredicateC2ERKNS_15DeviceInterface4TypeERK7QStringRK8QVariantNS0_18ComparisonOperatorE@Base 6.0.0
 _ZN5Solid9PredicateC2ERKS0_@Base 6.0.0
 _ZN5Solid9PredicateC2Ev@Base 6.0.0
 _ZN5Solid9PredicateD1Ev@Base 6.0.0
 _ZN5Solid9PredicateD2Ev@Base 6.0.0
 _ZN5Solid9PredicateaNERKS0_@Base 6.0.0
 _ZN5Solid9PredicateaSERKS0_@Base 6.0.0
 _ZN5Solid9PredicateanERKS0_@Base 6.0.0
 _ZN5Solid9PredicateoRERKS0_@Base 6.0.0
 _ZN5Solid9PredicateorERKS0_@Base 6.0.0
 _ZN5Solid9Processor11qt_metacallEN11QMetaObject4CallEiPPv@Base 6.0.0
 _ZN5Solid9Processor11qt_metacastEPKc@Base 6.0.0
 _ZN5Solid9Processor16staticMetaObjectE@Base 6.0.0
 _ZN5Solid9ProcessorD0Ev@Base 6.0.0
 _ZN5Solid9ProcessorD1Ev@Base 6.0.0
 _ZN5Solid9ProcessorD2Ev@Base 6.0.0
 _ZNK5Solid11OpticalDisc10metaObjectEv@Base 6.0.0
 _ZNK5Solid11OpticalDisc12isAppendableEv@Base 6.0.0
 _ZNK5Solid11OpticalDisc12isRewritableEv@Base 6.0.0
 _ZNK5Solid11OpticalDisc16availableContentEv@Base 6.0.0
 _ZNK5Solid11OpticalDisc7isBlankEv@Base 6.0.0
 _ZNK5Solid11OpticalDisc8capacityEv@Base 6.0.0
 _ZNK5Solid11OpticalDisc8discTypeEv@Base 6.0.0
 _ZNK5Solid12NetworkShare10metaObjectEv@Base 6.0.0
 _ZNK5Solid12NetworkShare3urlEv@Base 6.0.0
 _ZNK5Solid12NetworkShare4typeEv@Base 6.0.0
 _ZNK5Solid12OpticalDrive10metaObjectEv@Base 6.0.0
 _ZNK5Solid12OpticalDrive10writeSpeedEv@Base 6.0.0
 _ZNK5Solid12OpticalDrive11writeSpeedsEv@Base 6.0.0
 _ZNK5Solid12OpticalDrive14supportedMediaEv@Base 6.0.0
 _ZNK5Solid12OpticalDrive9readSpeedEv@Base 6.0.0
 _ZNK5Solid12StorageDrive10metaObjectEv@Base 6.0.0
 _ZNK5Solid12StorageDrive11isRemovableEv@Base 6.0.0
 _ZNK5Solid12StorageDrive12timeDetectedEv@Base 6.0.0
 _ZNK5Solid12StorageDrive14isHotpluggableEv@Base 6.0.0
 _ZNK5Solid12StorageDrive17timeMediaDetectedEv@Base 6.0.0
 _ZNK5Solid12StorageDrive3busEv@Base 6.0.0
 _ZNK5Solid12StorageDrive4sizeEv@Base 6.0.0
 _ZNK5Solid12StorageDrive7isInUseEv@Base 6.0.0
 _ZNK5Solid12StorageDrive9driveTypeEv@Base 6.0.0
 _ZNK5Solid13StorageAccess10metaObjectEv@Base 6.0.0
 _ZNK5Solid13StorageAccess11isEncryptedEv@Base 6.0.0
 _ZNK5Solid13StorageAccess12isAccessibleEv@Base 6.0.0
 _ZNK5Solid13StorageAccess8canCheckEv@Base 6.3.0
 _ZNK5Solid13StorageAccess8filePathEv@Base 6.0.0
 _ZNK5Solid13StorageAccess9canRepairEv@Base 6.3.0
 _ZNK5Solid13StorageAccess9isIgnoredEv@Base 6.0.0
 _ZNK5Solid13StorageVolume10metaObjectEv@Base 6.0.0
 _ZNK5Solid13StorageVolume18encryptedContainerEv@Base 6.0.0
 _ZNK5Solid13StorageVolume4sizeEv@Base 6.0.0
 _ZNK5Solid13StorageVolume4uuidEv@Base 6.0.0
 _ZNK5Solid13StorageVolume5labelEv@Base 6.0.0
 _ZNK5Solid13StorageVolume5usageEv@Base 6.0.0
 _ZNK5Solid13StorageVolume6fsTypeEv@Base 6.0.0
 _ZNK5Solid13StorageVolume9isIgnoredEv@Base 6.0.0
 _ZNK5Solid14DeviceNotifier10metaObjectEv@Base 6.0.0
 _ZNK5Solid15DeviceInterface10metaObjectEv@Base 6.0.0
 _ZNK5Solid15DeviceInterface7isValidEv@Base 6.0.0
 _ZNK5Solid16GenericInterface10metaObjectEv@Base 6.0.0
 _ZNK5Solid16GenericInterface13allPropertiesEv@Base 6.0.0
 _ZNK5Solid16GenericInterface14propertyExistsERK7QString@Base 6.0.0
 _ZNK5Solid16GenericInterface8propertyERK7QString@Base 6.0.0
 _ZNK5Solid19PortableMediaPlayer10metaObjectEv@Base 6.0.0
 _ZNK5Solid19PortableMediaPlayer12driverHandleERK7QString@Base 6.0.0
 _ZNK5Solid19PortableMediaPlayer16supportedDriversE7QString@Base 6.0.0
 _ZNK5Solid19PortableMediaPlayer18supportedProtocolsEv@Base 6.0.0
 _ZNK5Solid5Block10metaObjectEv@Base 6.0.0
 _ZNK5Solid5Block11deviceMajorEv@Base 6.0.0
 _ZNK5Solid5Block11deviceMinorEv@Base 6.0.0
 _ZNK5Solid5Block6deviceEv@Base 6.0.0
 _ZNK5Solid6Camera10metaObjectEv@Base 6.0.0
 _ZNK5Solid6Camera12driverHandleERK7QString@Base 6.0.0
 _ZNK5Solid6Camera16supportedDriversE7QString@Base 6.0.0
 _ZNK5Solid6Camera18supportedProtocolsEv@Base 6.0.0
 _ZNK5Solid6Device11descriptionEv@Base 6.0.0
 _ZNK5Solid6Device11displayNameEv@Base 6.0.0
 _ZNK5Solid6Device17asDeviceInterfaceERKNS_15DeviceInterface4TypeE@Base 6.0.0
 _ZNK5Solid6Device17isDeviceInterfaceERKNS_15DeviceInterface4TypeE@Base 6.0.0
 _ZNK5Solid6Device3udiEv@Base 6.0.0
 _ZNK5Solid6Device4iconEv@Base 6.0.0
 _ZNK5Solid6Device6parentEv@Base 6.0.0
 _ZNK5Solid6Device6vendorEv@Base 6.0.0
 _ZNK5Solid6Device7emblemsEv@Base 6.0.0
 _ZNK5Solid6Device7isValidEv@Base 6.0.0
 _ZNK5Solid6Device7productEv@Base 6.0.0
 _ZNK5Solid6Device9parentUdiEv@Base 6.0.0
 _ZNK5Solid7Battery10energyFullEv@Base 6.0.0
 _ZNK5Solid7Battery10energyRateEv@Base 6.0.0
 _ZNK5Solid7Battery10metaObjectEv@Base 6.0.0
 _ZNK5Solid7Battery10technologyEv@Base 6.0.0
 _ZNK5Solid7Battery10timeToFullEv@Base 6.0.0
 _ZNK5Solid7Battery11chargeStateEv@Base 6.0.0
 _ZNK5Solid7Battery11temperatureEv@Base 6.0.0
 _ZNK5Solid7Battery11timeToEmptyEv@Base 6.0.0
 _ZNK5Solid7Battery13chargePercentEv@Base 6.0.0
 _ZNK5Solid7Battery13isPowerSupplyEv@Base 6.0.0
 _ZNK5Solid7Battery13remainingTimeEv@Base 6.0.0
 _ZNK5Solid7Battery14isRechargeableEv@Base 6.0.0
 _ZNK5Solid7Battery16energyFullDesignEv@Base 6.0.0
 _ZNK5Solid7Battery4typeEv@Base 6.0.0
 _ZNK5Solid7Battery6energyEv@Base 6.0.0
 _ZNK5Solid7Battery6serialEv@Base 6.0.0
 _ZNK5Solid7Battery7voltageEv@Base 6.0.0
 _ZNK5Solid7Battery8capacityEv@Base 6.0.0
 _ZNK5Solid7Battery9isPresentEv@Base 6.0.0
 _ZNK5Solid9Predicate12firstOperandEv@Base 6.0.0
 _ZNK5Solid9Predicate12propertyNameEv@Base 6.0.0
 _ZNK5Solid9Predicate13interfaceTypeEv@Base 6.0.0
 _ZNK5Solid9Predicate13matchingValueEv@Base 6.0.0
 _ZNK5Solid9Predicate13secondOperandEv@Base 6.0.0
 _ZNK5Solid9Predicate18comparisonOperatorEv@Base 6.0.0
 _ZNK5Solid9Predicate4typeEv@Base 6.0.0
 _ZNK5Solid9Predicate7isValidEv@Base 6.0.0
 _ZNK5Solid9Predicate7matchesERKNS_6DeviceE@Base 6.0.0
 _ZNK5Solid9Predicate8toStringEv@Base 6.0.0
 _ZNK5Solid9Predicate9usedTypesEv@Base 6.0.0
 _ZNK5Solid9Processor10metaObjectEv@Base 6.0.0
 _ZNK5Solid9Processor15instructionSetsEv@Base 6.0.0
 _ZNK5Solid9Processor18canChangeFrequencyEv@Base 6.0.0
 _ZNK5Solid9Processor6numberEv@Base 6.0.0
 _ZNK5Solid9Processor8maxSpeedEv@Base 6.0.0
 (optional=templinst)_ZNKSt8_Rb_treeI7QStringSt4pairIKS0_8QVariantESt10_Select1stIS4_ESt4lessIS0_ESaIS4_EE4findERS2_@Base 6.0.0
 (optional=templinst)_ZNKSt8_Rb_treeI7QStringSt4pairIKS0_iESt10_Select1stIS3_ESt4lessIS0_ESaIS3_EE4findERS2_@Base 6.0.0
 (optional=templinst)_ZNSt8_Rb_treeI7QStringSt4pairIKS0_8QVariantESt10_Select1stIS4_ESt4lessIS0_ESaIS4_EE11equal_rangeERS2_@Base 6.0.0
 (optional=templinst|arch=linux-any)_ZNSt8_Rb_treeI7QStringSt4pairIKS0_8QVariantESt10_Select1stIS4_ESt4lessIS0_ESaIS4_EE16_M_insert_uniqueIS4_EES1_ISt17_Rb_tree_iteratorIS4_EbEOT_@Base 6.0.0
 (optional=templinst)_ZNSt8_Rb_treeI7QStringSt4pairIKS0_8QVariantESt10_Select1stIS4_ESt4lessIS0_ESaIS4_EE24_M_get_insert_unique_posERS2_@Base 6.0.0
 (optional=templinst|arch=linux-any)_ZNSt8_Rb_treeI7QStringSt4pairIKS0_8QVariantESt10_Select1stIS4_ESt4lessIS0_ESaIS4_EE29_M_get_insert_hint_unique_posESt23_Rb_tree_const_iteratorIS4_ERS2_@Base 6.0.0
 (optional=templinst)_ZNSt8_Rb_treeI7QStringSt4pairIKS0_N5Solid11OpticalDisc11ContentTypeEESt10_Select1stIS6_ESt4lessIS0_ESaIS6_EE24_M_get_insert_unique_posERS2_@Base 6.0.0
 (optional=templinst|arch=amd64 arm64 mips64el ppc64el riscv64 sparc64)_ZNSt8_Rb_treeI7QStringSt4pairIKS0_N5Solid11OpticalDisc11ContentTypeEESt10_Select1stIS6_ESt4lessIS0_ESaIS6_EE29_M_get_insert_hint_unique_posESt23_Rb_tree_const_iteratorIS6_ERS2_@Base 6.0.0
 (optional=templinst)_ZNSt8_Rb_treeI7QStringSt4pairIKS0_N5Solid12OpticalDrive10MediumTypeEESt10_Select1stIS6_ESt4lessIS0_ESaIS6_EE24_M_get_insert_unique_posERS2_@Base 6.0.0
 (optional=templinst|arch=amd64 arm64 mips64el ppc64el riscv64 sparc64)_ZNSt8_Rb_treeI7QStringSt4pairIKS0_N5Solid12OpticalDrive10MediumTypeEESt10_Select1stIS6_ESt4lessIS0_ESaIS6_EE29_M_get_insert_hint_unique_posESt23_Rb_tree_const_iteratorIS6_ERS2_@Base 6.0.0
 (optional=templinst|arch=!hurd-i386 !i386)_ZNSt8_Rb_treeI7QStringSt4pairIKS0_iESt10_Select1stIS3_ESt4lessIS0_ESaIS3_EE11equal_rangeERS2_@Base 6.0.0
 (optional=templinst)_ZNSt8_Rb_treeI7QStringSt4pairIKS0_iESt10_Select1stIS3_ESt4lessIS0_ESaIS3_EE12_M_erase_auxESt23_Rb_tree_const_iteratorIS3_ESB_@Base 6.0.0
 (optional=templinst)_ZNSt8_Rb_treeI7QStringSt4pairIKS0_iESt10_Select1stIS3_ESt4lessIS0_ESaIS3_EE24_M_get_insert_unique_posERS2_@Base 6.0.0
 (optional=templinst)_ZNSt8_Rb_treeI7QStringSt4pairIKS0_iESt10_Select1stIS3_ESt4lessIS0_ESaIS3_EE29_M_get_insert_hint_unique_posESt23_Rb_tree_const_iteratorIS3_ERS2_@Base 6.0.0
 (optional=templinst)_ZNSt8_Rb_treeI7QStringSt4pairIKS0_iESt10_Select1stIS3_ESt4lessIS0_ESaIS3_EE4findERS2_@Base 6.0.0
 (optional=templinst|arch=amd64 arm64 powerpc ppc64el)_ZNSt8_Rb_treeIN5Solid11OpticalDisc8DiscTypeESt4pairIKS2_7QStringESt10_Select1stIS6_ESt4lessIS2_ESaIS6_EE16_M_insert_uniqueIS6_EES3_ISt17_Rb_tree_iteratorIS6_EbEOT_@Base 6.0.0
 _ZTIN5Solid11OpticalDiscE@Base 6.0.0
 _ZTIN5Solid12NetworkShareE@Base 6.0.0
 _ZTIN5Solid12OpticalDriveE@Base 6.0.0
 _ZTIN5Solid12StorageDriveE@Base 6.0.0
 _ZTIN5Solid13StorageAccessE@Base 6.0.0
 _ZTIN5Solid13StorageVolumeE@Base 6.0.0
 _ZTIN5Solid14DeviceNotifierE@Base 6.0.0
 _ZTIN5Solid15DeviceInterfaceE@Base 6.0.0
 _ZTIN5Solid16GenericInterfaceE@Base 6.0.0
 _ZTIN5Solid19PortableMediaPlayerE@Base 6.0.0
 _ZTIN5Solid5BlockE@Base 6.0.0
 _ZTIN5Solid6CameraE@Base 6.0.0
 _ZTIN5Solid7BatteryE@Base 6.0.0
 _ZTIN5Solid9ProcessorE@Base 6.0.0
 (arch=linux-any)_ZTIZN9QMetaType17registerConverterI4QMapI15QDBusObjectPathS1_I7QStringS1_IS3_8QVariantEEE9QIterableI16QMetaAssociationEN9QtPrivate34QAssociativeIterableConvertFunctorIS7_EEEEbT1_EUlPKvPvE_@Base 6.5.0
 (arch=linux-any)_ZTIZN9QMetaType17registerConverterI4QMapI7QStringS1_IS2_8QVariantEE9QIterableI16QMetaAssociationEN9QtPrivate34QAssociativeIterableConvertFunctorIS5_EEEEbT1_EUlPKvPvE_@Base 6.5.0
 _ZTIZN9QMetaType17registerConverterI4QMapI7QStringiE9QIterableI16QMetaAssociationEN9QtPrivate34QAssociativeIterableConvertFunctorIS3_EEEEbT1_EUlPKvPvE_@Base 6.0.0
 _ZTIZN9QMetaType17registerConverterI5QListI15QDBusObjectPathE9QIterableI13QMetaSequenceEN9QtPrivate33QSequentialIterableConvertFunctorIS3_EEEEbT1_EUlPKvPvE_@Base 6.0.0
 _ZTIZN9QMetaType17registerConverterI5QListIiE9QIterableI13QMetaSequenceEN9QtPrivate33QSequentialIterableConvertFunctorIS2_EEEEbT1_EUlPKvPvE_@Base 6.0.0
 (arch=linux-any)_ZTIZN9QMetaType19registerMutableViewI4QMapI15QDBusObjectPathS1_I7QStringS1_IS3_8QVariantEEE9QIterableI16QMetaAssociationEN9QtPrivate38QAssociativeIterableMutableViewFunctorIS7_EEEEbT1_EUlPvSF_E_@Base 6.5.0
 (arch=linux-any)_ZTIZN9QMetaType19registerMutableViewI4QMapI7QStringS1_IS2_8QVariantEE9QIterableI16QMetaAssociationEN9QtPrivate38QAssociativeIterableMutableViewFunctorIS5_EEEEbT1_EUlPvSD_E_@Base 6.5.0
 _ZTIZN9QMetaType19registerMutableViewI4QMapI7QStringiE9QIterableI16QMetaAssociationEN9QtPrivate38QAssociativeIterableMutableViewFunctorIS3_EEEEbT1_EUlPvSB_E_@Base 6.0.0
 _ZTIZN9QMetaType19registerMutableViewI5QListI15QDBusObjectPathE9QIterableI13QMetaSequenceEN9QtPrivate37QSequentialIterableMutableViewFunctorIS3_EEEEbT1_EUlPvSB_E_@Base 6.0.0
 _ZTIZN9QMetaType19registerMutableViewI5QListIiE9QIterableI13QMetaSequenceEN9QtPrivate37QSequentialIterableMutableViewFunctorIS2_EEEEbT1_EUlPvSA_E_@Base 6.0.0
 _ZTSN5Solid11OpticalDiscE@Base 6.0.0
 _ZTSN5Solid12NetworkShareE@Base 6.0.0
 _ZTSN5Solid12OpticalDriveE@Base 6.0.0
 _ZTSN5Solid12StorageDriveE@Base 6.0.0
 _ZTSN5Solid13StorageAccessE@Base 6.0.0
 _ZTSN5Solid13StorageVolumeE@Base 6.0.0
 _ZTSN5Solid14DeviceNotifierE@Base 6.0.0
 _ZTSN5Solid15DeviceInterfaceE@Base 6.0.0
 _ZTSN5Solid16GenericInterfaceE@Base 6.0.0
 _ZTSN5Solid19PortableMediaPlayerE@Base 6.0.0
 _ZTSN5Solid5BlockE@Base 6.0.0
 _ZTSN5Solid6CameraE@Base 6.0.0
 _ZTSN5Solid7BatteryE@Base 6.0.0
 _ZTSN5Solid9ProcessorE@Base 6.0.0
 (arch=linux-any)_ZTSZN9QMetaType17registerConverterI4QMapI15QDBusObjectPathS1_I7QStringS1_IS3_8QVariantEEE9QIterableI16QMetaAssociationEN9QtPrivate34QAssociativeIterableConvertFunctorIS7_EEEEbT1_EUlPKvPvE_@Base 6.5.0
 (arch=linux-any)_ZTSZN9QMetaType17registerConverterI4QMapI7QStringS1_IS2_8QVariantEE9QIterableI16QMetaAssociationEN9QtPrivate34QAssociativeIterableConvertFunctorIS5_EEEEbT1_EUlPKvPvE_@Base 6.5.0
 _ZTSZN9QMetaType17registerConverterI4QMapI7QStringiE9QIterableI16QMetaAssociationEN9QtPrivate34QAssociativeIterableConvertFunctorIS3_EEEEbT1_EUlPKvPvE_@Base 6.0.0
 _ZTSZN9QMetaType17registerConverterI5QListI15QDBusObjectPathE9QIterableI13QMetaSequenceEN9QtPrivate33QSequentialIterableConvertFunctorIS3_EEEEbT1_EUlPKvPvE_@Base 6.0.0
 _ZTSZN9QMetaType17registerConverterI5QListIiE9QIterableI13QMetaSequenceEN9QtPrivate33QSequentialIterableConvertFunctorIS2_EEEEbT1_EUlPKvPvE_@Base 6.0.0
 (arch=linux-any)_ZTSZN9QMetaType19registerMutableViewI4QMapI15QDBusObjectPathS1_I7QStringS1_IS3_8QVariantEEE9QIterableI16QMetaAssociationEN9QtPrivate38QAssociativeIterableMutableViewFunctorIS7_EEEEbT1_EUlPvSF_E_@Base 6.5.0
 (arch=linux-any)_ZTSZN9QMetaType19registerMutableViewI4QMapI7QStringS1_IS2_8QVariantEE9QIterableI16QMetaAssociationEN9QtPrivate38QAssociativeIterableMutableViewFunctorIS5_EEEEbT1_EUlPvSD_E_@Base 6.5.0
 _ZTSZN9QMetaType19registerMutableViewI4QMapI7QStringiE9QIterableI16QMetaAssociationEN9QtPrivate38QAssociativeIterableMutableViewFunctorIS3_EEEEbT1_EUlPvSB_E_@Base 6.0.0
 _ZTSZN9QMetaType19registerMutableViewI5QListI15QDBusObjectPathE9QIterableI13QMetaSequenceEN9QtPrivate37QSequentialIterableMutableViewFunctorIS3_EEEEbT1_EUlPvSB_E_@Base 6.0.0
 _ZTSZN9QMetaType19registerMutableViewI5QListIiE9QIterableI13QMetaSequenceEN9QtPrivate37QSequentialIterableMutableViewFunctorIS2_EEEEbT1_EUlPvSA_E_@Base 6.0.0
 _ZTVN5Solid11OpticalDiscE@Base 6.0.0
 _ZTVN5Solid12NetworkShareE@Base 6.0.0
 _ZTVN5Solid12OpticalDriveE@Base 6.0.0
 _ZTVN5Solid12StorageDriveE@Base 6.0.0
 _ZTVN5Solid13StorageAccessE@Base 6.0.0
 _ZTVN5Solid13StorageVolumeE@Base 6.0.0
 _ZTVN5Solid14DeviceNotifierE@Base 6.0.0
 _ZTVN5Solid15DeviceInterfaceE@Base 6.0.0
 _ZTVN5Solid16GenericInterfaceE@Base 6.0.0
 _ZTVN5Solid19PortableMediaPlayerE@Base 6.0.0
 _ZTVN5Solid5BlockE@Base 6.0.0
 _ZTVN5Solid6CameraE@Base 6.0.0
 _ZTVN5Solid7BatteryE@Base 6.0.0
 _ZTVN5Solid9ProcessorE@Base 6.0.0
 (optional=templinst|arch=linux-any)_ZZN9QMetaType21registerConverterImplI4QMapI15QDBusObjectPathS1_I7QStringS1_IS3_8QVariantEEE9QIterableI16QMetaAssociationEEEbSt8functionIFbPKvPvEES_S_E10unregister@Base 6.0.0
 (optional=templinst|arch=linux-any)_ZZN9QMetaType21registerConverterImplI4QMapI7QStringS1_IS2_8QVariantEE9QIterableI16QMetaAssociationEEEbSt8functionIFbPKvPvEES_S_E10unregister@Base 6.0.0
 (optional=templinst)_ZZN9QMetaType21registerConverterImplI4QMapI7QStringiE9QIterableI16QMetaAssociationEEEbSt8functionIFbPKvPvEES_S_E10unregister@Base 6.0.0
 (optional=templinst)_ZZN9QMetaType21registerConverterImplI5QListI15QDBusObjectPathE9QIterableI13QMetaSequenceEEEbSt8functionIFbPKvPvEES_S_E10unregister@Base 6.0.0
 (optional=templinst)_ZZN9QMetaType21registerConverterImplI5QListIiE9QIterableI13QMetaSequenceEEEbSt8functionIFbPKvPvEES_S_E10unregister@Base 6.0.0
 (optional=templinst|arch=linux-any)_ZZN9QMetaType23registerMutableViewImplI4QMapI15QDBusObjectPathS1_I7QStringS1_IS3_8QVariantEEE9QIterableI16QMetaAssociationEEEbSt8functionIFbPvSC_EES_S_E10unregister@Base 6.0.0
 (optional=templinst|arch=linux-any)_ZZN9QMetaType23registerMutableViewImplI4QMapI7QStringS1_IS2_8QVariantEE9QIterableI16QMetaAssociationEEEbSt8functionIFbPvSA_EES_S_E10unregister@Base 6.0.0
 (optional=templinst)_ZZN9QMetaType23registerMutableViewImplI4QMapI7QStringiE9QIterableI16QMetaAssociationEEEbSt8functionIFbPvS8_EES_S_E10unregister@Base 6.0.0
 (optional=templinst)_ZZN9QMetaType23registerMutableViewImplI5QListI15QDBusObjectPathE9QIterableI13QMetaSequenceEEEbSt8functionIFbPvS8_EES_S_E10unregister@Base 6.0.0
 (optional=templinst)_ZZN9QMetaType23registerMutableViewImplI5QListIiE9QIterableI13QMetaSequenceEEEbSt8functionIFbPvS7_EES_S_E10unregister@Base 6.0.0
